target datalayout = "e-m:e-p270:32:32-p271:32:32-p272:64:64-i64:64-i128:128-f80:128-n8:16:32:64-S128"
target triple = "x86_64-unknown-linux-gnu"

%struct.mallinfo = type { i32, i32, i32, i32, i32, i32, i32, i32, i32, i32 }

; Function Attrs: mustprogress nounwind uwtable
define hidden noundef i64 @_ZN4llvh3sys7Process14GetMallocUsageEv() #0 align 2 {
entry:
  %mi = alloca %struct.mallinfo, align 4
  %ref.tmp = alloca %struct.mallinfo, align 4
  call void @mallinfo(ptr sret(%struct.mallinfo) align 4 %ref.tmp) #5
  call void @llvm.memcpy.p0.p0.i64(ptr align 4 %mi, ptr align 4 %ref.tmp, i64 40, i1 false)
  %uordblks = getelementptr inbounds %struct.mallinfo, ptr %mi, i32 0, i32 7
  %0 = load i32, ptr %uordblks, align 4
  %conv = sext i32 %0 to i64
  ret i64 %conv
}