; Function Attrs: mustprogress nounwind uwtable
define hidden noundef range(i64 -2147483648, 2147483648) i64 @_ZN4llvh3sys7Process14GetMallocUsageEv() local_unnamed_addr #0 align 2 {
entry:
  %ref.tmp = alloca %struct.mallinfo, align 4
  call void @mallinfo(ptr nonnull sret(%struct.mallinfo) align 4 %ref.tmp) #18
  %mi.sroa.1.0.ref.tmp.sroa_idx = getelementptr inbounds nuw i8, ptr %ref.tmp, i64 28
  %mi.sroa.1.0.copyload = load i32, ptr %mi.sroa.1.0.ref.tmp.sroa_idx, align 4
  %conv = sext i32 %mi.sroa.1.0.copyload to i64
  ret i64 %conv
}